; ModuleID = 'source-C-CXX/16/230.c'
source_filename = "source-C-CXX/16/230.c"
target datalayout = "e-m:e-p270:32:32-p271:32:32-p272:64:64-i64:64-f80:128-n8:16:32:64-S128"
target triple = "x86_64-pc-linux-gnu"

@.str = private unnamed_addr constant [3 x i8] c"%s\00", align 1

; Function Attrs: nofree nounwind sspstrong uwtable
define dso_local i32 @main() local_unnamed_addr #0 {
  %1 = alloca [100 x i8], align 16
  %2 = getelementptr inbounds [100 x i8], [100 x i8]* %1, i64 0, i64 0
  call void @llvm.lifetime.start.p0i8(i64 100, i8* nonnull %2) #5
  %3 = call i32 (i8*, ...) @__isoc99_scanf(i8* getelementptr inbounds ([3 x i8], [3 x i8]* @.str, i64 0, i64 0), i8* nonnull %2)
  %4 = icmp eq i32 %3, -1
  br i1 %4, label %49, label %5

5:                                                ; preds = %0, %45
  %6 = call i32 @puts(i8* nonnull %2)
  %7 = call i64 @strlen(i8* noundef nonnull %2) #6
  %8 = trunc i64 %7 to i32
  %9 = icmp sgt i32 %8, 0
  br i1 %9, label %10, label %45

10:                                               ; preds = %5
  %11 = and i64 %7, 4294967295
  br label %15

12:                                               ; preds = %31
  br i1 %9, label %13, label %45

13:                                               ; preds = %12
  %14 = and i64 %7, 4294967295
  br label %34

15:                                               ; preds = %10, %31
  %16 = phi i64 [ 0, %10 ], [ %32, %31 ]
  %17 = getelementptr inbounds [100 x i8], [100 x i8]* %1, i64 0, i64 %16
  %18 = load i8, i8* %17, align 1, !tbaa !5
  %19 = icmp eq i8 %18, 41
  br i1 %19, label %20, label %31

20:                                               ; preds = %15, %24
  %21 = phi i64 [ %22, %24 ], [ %16, %15 ]
  %22 = add nsw i64 %21, -1
  %23 = icmp sgt i64 %21, 0
  br i1 %23, label %24, label %31

24:                                               ; preds = %20
  %25 = getelementptr inbounds [100 x i8], [100 x i8]* %1, i64 0, i64 %22
  %26 = load i8, i8* %25, align 1, !tbaa !5
  %27 = icmp eq i8 %26, 40
  br i1 %27, label %28, label %20, !llvm.loop !8

28:                                               ; preds = %24
  %29 = and i64 %22, 4294967295
  %30 = getelementptr inbounds [100 x i8], [100 x i8]* %1, i64 0, i64 %29
  store i8 0, i8* %30, align 1, !tbaa !5
  store i8 0, i8* %17, align 1, !tbaa !5
  br label %31

31:                                               ; preds = %20, %15, %28
  %32 = add nuw nsw i64 %16, 1
  %33 = icmp eq i64 %32, %11
  br i1 %33, label %12, label %15, !llvm.loop !10

34:                                               ; preds = %13, %34
  %35 = phi i64 [ 0, %13 ], [ %43, %34 ]
  %36 = getelementptr inbounds [100 x i8], [100 x i8]* %1, i64 0, i64 %35
  %37 = load i8, i8* %36, align 1, !tbaa !5
  %38 = icmp eq i8 %37, 41
  %39 = select i1 %38, i32 63, i32 32
  %40 = icmp eq i8 %37, 40
  %41 = select i1 %40, i32 36, i32 %39
  %42 = call i32 @putchar(i32 %41)
  %43 = add nuw nsw i64 %35, 1
  %44 = icmp eq i64 %43, %14
  br i1 %44, label %45, label %34, !llvm.loop !11

45:                                               ; preds = %34, %5, %12
  %46 = call i32 @putchar(i32 10)
  %47 = call i32 (i8*, ...) @__isoc99_scanf(i8* getelementptr inbounds ([3 x i8], [3 x i8]* @.str, i64 0, i64 0), i8* nonnull %2)
  %48 = icmp eq i32 %47, -1
  br i1 %48, label %49, label %5, !llvm.loop !12

49:                                               ; preds = %45, %0
  call void @llvm.lifetime.end.p0i8(i64 100, i8* nonnull %2) #5
  ret i32 0
}

; Function Attrs: argmemonly mustprogress nofree nosync nounwind willreturn
declare void @llvm.lifetime.start.p0i8(i64 immarg, i8* nocapture) #1

; Function Attrs: nofree nounwind
declare noundef i32 @__isoc99_scanf(i8* nocapture noundef readonly, ...) local_unnamed_addr #2

; Function Attrs: argmemonly mustprogress nofree nounwind readonly willreturn
declare i64 @strlen(i8* nocapture) local_unnamed_addr #3

; Function Attrs: argmemonly mustprogress nofree nosync nounwind willreturn
declare void @llvm.lifetime.end.p0i8(i64 immarg, i8* nocapture) #1

; Function Attrs: nofree nounwind
declare noundef i32 @puts(i8* nocapture noundef readonly) local_unnamed_addr #4

; Function Attrs: nofree nounwind
declare noundef i32 @putchar(i32 noundef) local_unnamed_addr #4


!llvm.module.flags = !{!0, !1, !2, !3}
!llvm.ident = !{!4}

!0 = !{i32 1, !"wchar_size", i32 4}
!1 = !{i32 7, !"PIC Level", i32 2}
!2 = !{i32 7, !"PIE Level", i32 2}
!3 = !{i32 7, !"uwtable", i32 1}
!4 = !{!"clang version 13.0.0"}
!5 = !{!6, !6, i64 0}
!6 = !{!"omnipotent char", !7, i64 0}
!7 = !{!"Simple C/C++ TBAA"}
!8 = distinct !{!8, !9}
!9 = !{!"llvm.loop.mustprogress"}
!10 = distinct !{!10, !9}
!11 = distinct !{!11, !9}
!12 = distinct !{!12, !9}
